#############################
##### test_new_api_host #####
#############################


#[T][DE8256] Call add_node without free (buffer.c:597) (call_add_node_without_free)
{
   call_add_node_without_free
   Memcheck:Leak
   match-leak-kinds: definite
   fun:malloc
   fun:_ZN7testing8internal12InvokeHelperIPvSt5tupleIImEEE6InvokeIPFS2_mEEES2_T_RKS4_
   fun:_ZN7testing8internal12InvokeActionIPFPvmEE7PerformIS2_St5tupleIImEEEET_RKT0_
   fun:_ZN7testing17PolymorphicActionINS_8internal12InvokeActionIPFPvmEEEE15MonomorphicImplIS4_E7PerformERKSt5tupleIImEE
   fun:_ZNK7testing6ActionIFPvmEE7PerformERKSt5tupleIImEE
   fun:_ZNK7testing8internal18FunctionMockerBaseIFPvmEE20PerformDefaultActionERKSt5tupleIImEERKNSt7__cxx1112basic_stringIcSt11char_traitsIcESaIcEEE
   fun:_ZN7testing8internal18ActionResultHolderIPvE20PerformDefaultActionIFS2_mEEEPS3_PKNS0_18FunctionMockerBaseIT_EERKNS0_8FunctionIS8_E13ArgumentTupleERKNSt7__cxx1112basic_stringIcSt11char_traitsIcESaIcEEE
   fun:_ZNK7testing8internal18FunctionMockerBaseIFPvmEE27UntypedPerformDefaultActionEPKvRKNSt7__cxx1112basic_stringIcSt11char_traitsIcESaIcEEE
   fun:_ZN7testing8internal25UntypedFunctionMockerBase17UntypedInvokeWithEPKv
   fun:_ZN7testing8internal18FunctionMockerBaseIFPvmEE10InvokeWithERKSt5tupleIImEE
   fun:_ZN7testing8internal14FunctionMockerIFPvmEE6InvokeEm
   fun:_ZN10alloc_mock6mallocEm
   fun:__wrap_malloc
   fun:_ZL8add_nodePvP19allocator_interface
   fun:tcc_buffer_malloc
}


#[T][DE8256] Call init_allocators without free (buffer.c:405) (call_init_allocators_without_free)
{
   call_init_allocators_without_free
   Memcheck:Leak
   match-leak-kinds: definite
   fun:malloc
   fun:_ZN7testing8internal12InvokeHelperIPvSt5tupleIImEEE6InvokeIPFS2_mEEES2_T_RKS4_
   fun:_ZN7testing8internal12InvokeActionIPFPvmEE7PerformIS2_St5tupleIImEEEET_RKT0_
   fun:_ZN7testing17PolymorphicActionINS_8internal12InvokeActionIPFPvmEEEE15MonomorphicImplIS4_E7PerformERKSt5tupleIImEE
   fun:_ZNK7testing6ActionIFPvmEE7PerformERKSt5tupleIImEE
   fun:_ZNK7testing8internal18FunctionMockerBaseIFPvmEE20PerformDefaultActionERKSt5tupleIImEERKNSt7__cxx1112basic_stringIcSt11char_traitsIcESaIcEEE
   fun:_ZN7testing8internal18ActionResultHolderIPvE20PerformDefaultActionIFS2_mEEEPS3_PKNS0_18FunctionMockerBaseIT_EERKNS0_8FunctionIS8_E13ArgumentTupleERKNSt7__cxx1112basic_stringIcSt11char_traitsIcESaIcEEE
   fun:_ZNK7testing8internal18FunctionMockerBaseIFPvmEE27UntypedPerformDefaultActionEPKvRKNSt7__cxx1112basic_stringIcSt11char_traitsIcESaIcEEE
   fun:_ZN7testing8internal25UntypedFunctionMockerBase17UntypedInvokeWithEPKv
   fun:_ZN7testing8internal18FunctionMockerBaseIFPvmEE10InvokeWithERKSt5tupleIImEE
   fun:_ZN7testing8internal14FunctionMockerIFPvmEE6InvokeEm
   fun:_ZN10alloc_mock6mallocEm
   fun:__wrap_malloc
   fun:_ZL15init_allocatorsP14latency_configm
   fun:_ZL20init_latencies_tablePP14latency_configPm
   fun:tcc_buffer_init_base
}


#[T][DE8256] Call fill_latencies_from_config without free (buffer.c:230) (call_fill_latencies_from_config_without_free)
{
   call_fill_latencies_from_config_without_free
   Memcheck:Leak
   match-leak-kinds: definite
   fun:calloc
   fun:_ZN7testing8internal12InvokeHelperIPvSt5tupleIImmEEE6InvokeIPFS2_mmEEES2_T_RKS4_
   fun:_ZN7testing8internal12InvokeActionIPFPvmmEE7PerformIS2_St5tupleIImmEEEET_RKT0_
   fun:_ZN7testing17PolymorphicActionINS_8internal12InvokeActionIPFPvmmEEEE15MonomorphicImplIS4_E7PerformERKSt5tupleIImmEE
   fun:_ZNK7testing6ActionIFPvmmEE7PerformERKSt5tupleIImmEE
   fun:_ZNK7testing8internal18FunctionMockerBaseIFPvmmEE20PerformDefaultActionERKSt5tupleIImmEERKNSt7__cxx1112basic_stringIcSt11char_traitsIcESaIcEEE
   fun:_ZN7testing8internal18ActionResultHolderIPvE20PerformDefaultActionIFS2_mmEEEPS3_PKNS0_18FunctionMockerBaseIT_EERKNS0_8FunctionIS8_E13ArgumentTupleERKNSt7__cxx1112basic_stringIcSt11char_traitsIcESaIcEEE
   fun:_ZNK7testing8internal18FunctionMockerBaseIFPvmmEE27UntypedPerformDefaultActionEPKvRKNSt7__cxx1112basic_stringIcSt11char_traitsIcESaIcEEE
   fun:_ZN7testing8internal25UntypedFunctionMockerBase17UntypedInvokeWithEPKv
   fun:_ZN7testing8internal18FunctionMockerBaseIFPvmmEE10InvokeWithERKSt5tupleIImmEE
   fun:_ZN7testing8internal14FunctionMockerIFPvmmEE6InvokeEmm
   fun:_ZN10alloc_mock6callocEmm
   fun:__wrap_calloc
   fun:_ZL26fill_latencies_from_configiPP14latency_configPm
}


#[T][DE8256] Call fill_latencies_default without free (buffer.c:318) (call_fill_latencies_default_without_free)
{
   call_fill_latencies_default_without_free
   Memcheck:Leak
   match-leak-kinds: definite
   fun:calloc
   fun:_ZN7testing8internal12InvokeHelperIPvSt5tupleIImmEEE6InvokeIPFS2_mmEEES2_T_RKS4_
   fun:_ZN7testing8internal12InvokeActionIPFPvmmEE7PerformIS2_St5tupleIImmEEEET_RKT0_
   fun:_ZN7testing17PolymorphicActionINS_8internal12InvokeActionIPFPvmmEEEE15MonomorphicImplIS4_E7PerformERKSt5tupleIImmEE
   fun:_ZNK7testing6ActionIFPvmmEE7PerformERKSt5tupleIImmEE
   fun:_ZNK7testing8internal18FunctionMockerBaseIFPvmmEE20PerformDefaultActionERKSt5tupleIImmEERKNSt7__cxx1112basic_stringIcSt11char_traitsIcESaIcEEE
   fun:_ZN7testing8internal18ActionResultHolderIPvE20PerformDefaultActionIFS2_mmEEEPS3_PKNS0_18FunctionMockerBaseIT_EERKNS0_8FunctionIS8_E13ArgumentTupleERKNSt7__cxx1112basic_stringIcSt11char_traitsIcESaIcEEE
   fun:_ZNK7testing8internal18FunctionMockerBaseIFPvmmEE27UntypedPerformDefaultActionEPKvRKNSt7__cxx1112basic_stringIcSt11char_traitsIcESaIcEEE
   fun:_ZN7testing8internal25UntypedFunctionMockerBase17UntypedInvokeWithEPKv
   fun:_ZN7testing8internal18FunctionMockerBaseIFPvmmEE10InvokeWithERKSt5tupleIImmEE
   fun:_ZN7testing8internal14FunctionMockerIFPvmmEE6InvokeEmm
   fun:_ZN10alloc_mock6callocEmm
   fun:__wrap_calloc
   fun:_ZL22fill_latencies_defaultPP14latency_configPm
   fun:_ZL20fill_latencies_tablePP14latency_configPm
   fun:_ZL20init_latencies_tablePP14latency_configPm
   fun:tcc_buffer_init_base
}

######################################
##### test_tcc_tgpio_sample_host #####
######################################


#[T][DE8256] Call parse_args without free (tgpio_sample.c:613) (call_parse_args_without_free)
{
   call_parse_args_without_free
   Memcheck:Leak
   match-leak-kinds: definite
   fun:calloc
   fun:__wrap_calloc
   fun:parse_args
}


################################
##### test_umm_malloc_host #####
################################


#[T][DE8256] Call lambda bm_get_memory without free (test_umm_malloc_host.cpp:76) (call_lambda_bm_get_memory_without_free)
{
   call_lambda_bm_get_memory_without_free
   Memcheck:Leak
   match-leak-kinds: definite
   fun:malloc
   fun:_ZZN12_GLOBAL__N_118tcc_allocator_test28expect_bm_get_memory_successEvENKUlPmPPvP11bm_instanceE_clES1_S3_S5_
}

###################################
##### test_resctrl_cache_host #####
###################################


#[T][DE8256] Call create_malloced_region without free (resctrl_tcc_cache.c:955) (call_create_malloced_region_without_free)
{
   call_create_malloced_region_without_free
   Memcheck:Leak
   match-leak-kinds: definite
   fun:malloc
   fun:_ZN7testing8internal12InvokeHelperIPvSt5tupleIImEEE6InvokeIPFS2_mEEES2_T_RKS4_
   fun:_ZN7testing8internal12InvokeActionIPFPvmEE7PerformIS2_St5tupleIImEEEET_RKT0_
   fun:_ZN7testing17PolymorphicActionINS_8internal12InvokeActionIPFPvmEEEE15MonomorphicImplIS4_E7PerformERKSt5tupleIImEE
   fun:_ZNK7testing6ActionIFPvmEE7PerformERKSt5tupleIImEE
   fun:_ZNK7testing8internal18FunctionMockerBaseIFPvmEE20PerformDefaultActionERKSt5tupleIImEERKNSt7__cxx1112basic_stringIcSt11char_traitsIcESaIcEEE
   fun:_ZN7testing8internal18ActionResultHolderIPvE20PerformDefaultActionIFS2_mEEEPS3_PKNS0_18FunctionMockerBaseIT_EERKNS0_8FunctionIS8_E13ArgumentTupleERKNSt7__cxx1112basic_stringIcSt11char_traitsIcESaIcEEE
   fun:_ZNK7testing8internal18FunctionMockerBaseIFPvmEE27UntypedPerformDefaultActionEPKvRKNSt7__cxx1112basic_stringIcSt11char_traitsIcESaIcEEE
   fun:_ZN7testing8internal25UntypedFunctionMockerBase17UntypedInvokeWithEPKv
   fun:_ZN7testing8internal18FunctionMockerBaseIFPvmEE10InvokeWithERKSt5tupleIImEE
   fun:_ZN7testing8internal14FunctionMockerIFPvmEE6InvokeEm
   fun:_ZN10alloc_mock6mallocEm
   fun:__wrap_malloc
   fun:create_malloced_region
}
